; Function Attrs: mustprogress uwtable
define void @_ZN7httplib10ClientImpl5PatchERKNSt7__cxx1112basic_stringIcSt11char_traitsIcESaIcEEEmSt8functionIFbmmRNS_8DataSinkEEES8_(ptr noalias sret(%"class.httplib::Result") align 8 %agg.result, ptr noundef nonnull align 8 dereferenceable(1000) %this, ptr noundef nonnull align 8 dereferenceable(32) %path, i64 noundef %content_length, ptr nocapture noundef %content_provider, ptr noundef nonnull align 8 dereferenceable(32) %content_type) local_unnamed_addr #5 align 2 personality ptr @__gxx_personality_v0 {
entry:
  %ref.tmp = alloca %"class.std::multimap", align 8
  %agg.tmp = alloca %"class.std::function.29", align 8
  %0 = getelementptr inbounds i8, ptr %ref.tmp, i64 8
  %_M_parent.i.i.i.i.i = getelementptr inbounds i8, ptr %ref.tmp, i64 16
  %_M_left.i.i.i.i.i = getelementptr inbounds i8, ptr %ref.tmp, i64 24
  call void @llvm.memset.p0.i64(ptr noundef nonnull align 8 dereferenceable(24) %ref.tmp, i8 0, i64 24, i1 false)
  store ptr %0, ptr %_M_left.i.i.i.i.i, align 8
  %_M_right.i.i.i.i.i = getelementptr inbounds i8, ptr %ref.tmp, i64 32
  store ptr %0, ptr %_M_right.i.i.i.i.i, align 8
  %_M_node_count.i.i.i.i.i = getelementptr inbounds i8, ptr %ref.tmp, i64 40
  store i64 0, ptr %_M_node_count.i.i.i.i.i, align 8
  %_M_invoker.i = getelementptr inbounds i8, ptr %agg.tmp, i64 24
  %_M_invoker2.i = getelementptr inbounds i8, ptr %content_provider, i64 24
  call void @llvm.memset.p0.i64(ptr noundef nonnull align 8 dereferenceable(24) %agg.tmp, i8 0, i64 24, i1 false)
  %1 = load ptr, ptr %_M_invoker2.i, align 8
  store ptr %1, ptr %_M_invoker.i, align 8
  %_M_manager.i.i.i = getelementptr inbounds i8, ptr %content_provider, i64 16
  %2 = load ptr, ptr %_M_manager.i.i.i, align 8
  %tobool.not.i.i.not.i = icmp eq ptr %2, null
  br i1 %tobool.not.i.i.not.i, label %_ZNSt8functionIFbmmRN7httplib8DataSinkEEEC2EOS4_.exit, label %if.then.i

if.then.i:                                        ; preds = %entry
  %_M_manager.i.i = getelementptr inbounds i8, ptr %agg.tmp, i64 16
  call void @llvm.memcpy.p0.p0.i64(ptr noundef nonnull align 8 dereferenceable(16) %agg.tmp, ptr noundef nonnull align 8 dereferenceable(16) %content_provider, i64 16, i1 false)
  store ptr %2, ptr %_M_manager.i.i, align 8
  call void @llvm.memset.p0.i64(ptr noundef nonnull align 8 dereferenceable(16) %_M_manager.i.i.i, i8 0, i64 16, i1 false)
  br label %_ZNSt8functionIFbmmRN7httplib8DataSinkEEEC2EOS4_.exit

_ZNSt8functionIFbmmRN7httplib8DataSinkEEEC2EOS4_.exit: ; preds = %entry, %if.then.i
  invoke void @_ZN7httplib10ClientImpl5PatchERKNSt7__cxx1112basic_stringIcSt11char_traitsIcESaIcEEERKSt8multimapIS6_S6_NS_6detail2ciESaISt4pairIS7_S6_EEEmSt8functionIFbmmRNS_8DataSinkEEES8_(ptr sret(%"class.httplib::Result") align 8 %agg.result, ptr noundef nonnull align 8 dereferenceable(1000) %this, ptr noundef nonnull align 8 dereferenceable(32) %path, ptr noundef nonnull align 8 dereferenceable(48) %ref.tmp, i64 noundef %content_length, ptr noundef nonnull %agg.tmp, ptr noundef nonnull align 8 dereferenceable(32) %content_type)
          to label %invoke.cont unwind label %lpad

invoke.cont:                                      ; preds = %_ZNSt8functionIFbmmRN7httplib8DataSinkEEEC2EOS4_.exit
  %_M_manager.i.i1 = getelementptr inbounds i8, ptr %agg.tmp, i64 16
  %3 = load ptr, ptr %_M_manager.i.i1, align 8
  %tobool.not.i.i = icmp eq ptr %3, null
  br i1 %tobool.not.i.i, label %_ZNSt8functionIFbmmRN7httplib8DataSinkEEED2Ev.exit, label %if.then.i.i

if.then.i.i:                                      ; preds = %invoke.cont
  %call.i.i = invoke noundef zeroext i1 %3(ptr noundef nonnull align 8 dereferenceable(16) %agg.tmp, ptr noundef nonnull align 8 dereferenceable(16) %agg.tmp, i32 noundef 3)
          to label %_ZNSt8functionIFbmmRN7httplib8DataSinkEEED2Ev.exit unwind label %terminate.lpad.i.i

terminate.lpad.i.i:                               ; preds = %if.then.i.i
  %4 = landingpad { ptr, i32 }
          catch ptr null
  %5 = extractvalue { ptr, i32 } %4, 0
  call void @__clang_call_terminate(ptr %5) #40
  unreachable

_ZNSt8functionIFbmmRN7httplib8DataSinkEEED2Ev.exit: ; preds = %invoke.cont, %if.then.i.i
  %6 = load ptr, ptr %_M_parent.i.i.i.i.i, align 8
  invoke void @_ZNSt8_Rb_treeINSt7__cxx1112basic_stringIcSt11char_traitsIcESaIcEEESt4pairIKS5_S5_ESt10_Select1stIS8_EN7httplib6detail2ciESaIS8_EE8_M_eraseEPSt13_Rb_tree_nodeIS8_E(ptr noundef nonnull align 8 dereferenceable(48) %ref.tmp, ptr noundef %6)
          to label %_ZNSt8multimapINSt7__cxx1112basic_stringIcSt11char_traitsIcESaIcEEES5_N7httplib6detail2ciESaISt4pairIKS5_S5_EEED2Ev.exit unwind label %terminate.lpad.i.i2

terminate.lpad.i.i2:                              ; preds = %_ZNSt8functionIFbmmRN7httplib8DataSinkEEED2Ev.exit
  %7 = landingpad { ptr, i32 }
          catch ptr null
  %8 = extractvalue { ptr, i32 } %7, 0
  call void @__clang_call_terminate(ptr %8) #40
  unreachable

_ZNSt8multimapINSt7__cxx1112basic_stringIcSt11char_traitsIcESaIcEEES5_N7httplib6detail2ciESaISt4pairIKS5_S5_EEED2Ev.exit: ; preds = %_ZNSt8functionIFbmmRN7httplib8DataSinkEEED2Ev.exit
  ret void

lpad:                                             ; preds = %_ZNSt8functionIFbmmRN7httplib8DataSinkEEEC2EOS4_.exit
  %9 = landingpad { ptr, i32 }
          cleanup
  %_M_manager.i.i3 = getelementptr inbounds i8, ptr %agg.tmp, i64 16
  %10 = load ptr, ptr %_M_manager.i.i3, align 8
  %tobool.not.i.i4 = icmp eq ptr %10, null
  br i1 %tobool.not.i.i4, label %_ZNSt8functionIFbmmRN7httplib8DataSinkEEED2Ev.exit8, label %if.then.i.i5

if.then.i.i5:                                     ; preds = %lpad
  %call.i.i6 = invoke noundef zeroext i1 %10(ptr noundef nonnull align 8 dereferenceable(16) %agg.tmp, ptr noundef nonnull align 8 dereferenceable(16) %agg.tmp, i32 noundef 3)
          to label %_ZNSt8functionIFbmmRN7httplib8DataSinkEEED2Ev.exit8 unwind label %terminate.lpad.i.i7

terminate.lpad.i.i7:                              ; preds = %if.then.i.i5
  %11 = landingpad { ptr, i32 }
          catch ptr null
  %12 = extractvalue { ptr, i32 } %11, 0
  call void @__clang_call_terminate(ptr %12) #40
  unreachable

_ZNSt8functionIFbmmRN7httplib8DataSinkEEED2Ev.exit8: ; preds = %lpad, %if.then.i.i5
  call void @_ZNSt8multimapINSt7__cxx1112basic_stringIcSt11char_traitsIcESaIcEEES5_N7httplib6detail2ciESaISt4pairIKS5_S5_EEED2Ev(ptr noundef nonnull align 8 dereferenceable(48) %ref.tmp) #37
  resume { ptr, i32 } %9
}